target datalayout = "e-m:e-p270:32:32-p271:32:32-p272:64:64-i64:64-i128:128-f80:128-n8:16:32:64-S128"
target triple = "x86_64-pc-linux-gnu"

%struct.OSQPInfo = type { [32 x i8], i64, i64, double, double, double, i64, i64, double, double, double, double, double, double }

; Function Attrs: nounwind uwtable
define i64 @has_solution(ptr noundef %0) #0 {
  %2 = alloca ptr, align 8
  store ptr %0, ptr %2, align 8
  %3 = load ptr, ptr %2, align 8
  %4 = getelementptr inbounds %struct.OSQPInfo, ptr %3, i32 0, i32 1
  %5 = load i64, ptr %4, align 8
  %6 = icmp ne i64 %5, 3
  br i1 %6, label %7, label %27

7:                                                ; preds = %1
  %8 = load ptr, ptr %2, align 8
  %9 = getelementptr inbounds %struct.OSQPInfo, ptr %8, i32 0, i32 1
  %10 = load i64, ptr %9, align 8
  %11 = icmp ne i64 %10, 4
  br i1 %11, label %12, label %27

12:                                               ; preds = %7
  %13 = load ptr, ptr %2, align 8
  %14 = getelementptr inbounds %struct.OSQPInfo, ptr %13, i32 0, i32 1
  %15 = load i64, ptr %14, align 8
  %16 = icmp ne i64 %15, 5
  br i1 %16, label %17, label %27

17:                                               ; preds = %12
  %18 = load ptr, ptr %2, align 8
  %19 = getelementptr inbounds %struct.OSQPInfo, ptr %18, i32 0, i32 1
  %20 = load i64, ptr %19, align 8
  %21 = icmp ne i64 %20, 6
  br i1 %21, label %22, label %27

22:                                               ; preds = %17
  %23 = load ptr, ptr %2, align 8
  %24 = getelementptr inbounds %struct.OSQPInfo, ptr %23, i32 0, i32 1
  %25 = load i64, ptr %24, align 8
  %26 = icmp ne i64 %25, 9
  br label %27

27:                                               ; preds = %22, %17, %12, %7, %1
  %28 = phi i1 [ false, %17 ], [ false, %12 ], [ false, %7 ], [ false, %1 ], [ %26, %22 ]
  %29 = zext i1 %28 to i32
  %30 = sext i32 %29 to i64
  ret i64 %30
}