; Function Attrs: mustprogress nofree norecurse nosync nounwind willreturn memory(argmem: read) uwtable
define range(i64 0, 2) i64 @has_solution(ptr noundef readonly captures(none) %0) local_unnamed_addr #5 {
  %2 = getelementptr inbounds nuw i8, ptr %0, i64 32
  %3 = load i64, ptr %2, align 8
  %4 = add i64 %3, -7
  %switch = icmp ult i64 %4, -4
  %5 = icmp ne i64 %3, 9
  %narrow = and i1 %5, %switch
  %6 = zext i1 %narrow to i64
  ret i64 %6
}